; ModuleID = '2/915.c'
source_filename = "2/915.c"
target datalayout = "e-m:e-p270:32:32-p271:32:32-p272:64:64-i64:64-f80:128-n8:16:32:64-S128"
target triple = "x86_64-pc-linux-gnu"

%struct.book = type { i32, [25 x i8] }

@.str = private unnamed_addr constant [3 x i8] c"%d\00", align 1
@.str.1 = private unnamed_addr constant [6 x i8] c"%d %s\00", align 1
@book = common dso_local global [999 x %struct.book] zeroinitializer, align 16
@.str.2 = private unnamed_addr constant [7 x i8] c"%c\0A%d\0A\00", align 1
@.str.3 = private unnamed_addr constant [4 x i8] c"%d\0A\00", align 1

; Function Attrs: noinline nounwind uwtable
define dso_local void @main() #0 {
  %1 = alloca i32, align 4
  %2 = alloca i32, align 4
  %3 = alloca i32, align 4
  %4 = alloca i32, align 4
  %5 = alloca i32, align 4
  %6 = alloca i32, align 4
  %7 = alloca i32, align 4
  %8 = alloca [25 x i32], align 16
  %9 = alloca [25 x [999 x i32]], align 16
  %10 = alloca i32, align 4
  store i32 0, i32* %7, align 4
  %11 = bitcast [25 x i32]* %8 to i8*
  call void @llvm.memset.p0i8.i64(i8* align 16 %11, i8 0, i64 100, i1 false)
  %12 = bitcast [25 x [999 x i32]]* %9 to i8*
  call void @llvm.memset.p0i8.i64(i8* align 16 %12, i8 0, i64 99900, i1 false)
  store i32 0, i32* %10, align 4
  %13 = call i32 (i8*, ...) @__isoc99_scanf(i8* getelementptr inbounds ([3 x i8], [3 x i8]* @.str, i64 0, i64 0), i32* %1)
  store i32 0, i32* %2, align 4
  br label %14

14:                                               ; preds = %86, %0
  %15 = load i32, i32* %2, align 4
  %16 = load i32, i32* %1, align 4
  %17 = icmp slt i32 %15, %16
  br i1 %17, label %18, label %89

18:                                               ; preds = %14
  %19 = load i32, i32* %2, align 4
  %20 = sext i32 %19 to i64
  %21 = getelementptr inbounds [999 x %struct.book], [999 x %struct.book]* @book, i64 0, i64 %20
  %22 = getelementptr inbounds %struct.book, %struct.book* %21, i32 0, i32 0
  %23 = load i32, i32* %2, align 4
  %24 = sext i32 %23 to i64
  %25 = getelementptr inbounds [999 x %struct.book], [999 x %struct.book]* @book, i64 0, i64 %24
  %26 = getelementptr inbounds %struct.book, %struct.book* %25, i32 0, i32 1
  %27 = getelementptr inbounds [25 x i8], [25 x i8]* %26, i64 0, i64 0
  %28 = call i32 (i8*, ...) @__isoc99_scanf(i8* getelementptr inbounds ([6 x i8], [6 x i8]* @.str.1, i64 0, i64 0), i32* %22, i8* %27)
  %29 = load i32, i32* %2, align 4
  %30 = sext i32 %29 to i64
  %31 = getelementptr inbounds [999 x %struct.book], [999 x %struct.book]* @book, i64 0, i64 %30
  %32 = getelementptr inbounds %struct.book, %struct.book* %31, i32 0, i32 1
  %33 = getelementptr inbounds [25 x i8], [25 x i8]* %32, i64 0, i64 0
  %34 = call i64 @strlen(i8* %33) #4
  %35 = trunc i64 %34 to i32
  store i32 %35, i32* %5, align 4
  store i32 0, i32* %3, align 4
  br label %36

36:                                               ; preds = %82, %18
  %37 = load i32, i32* %3, align 4
  %38 = load i32, i32* %5, align 4
  %39 = icmp slt i32 %37, %38
  br i1 %39, label %40, label %85

40:                                               ; preds = %36
  store i32 0, i32* %4, align 4
  br label %41

41:                                               ; preds = %78, %40
  %42 = load i32, i32* %4, align 4
  %43 = icmp slt i32 %42, 26
  br i1 %43, label %44, label %81

44:                                               ; preds = %41
  %45 = load i32, i32* %2, align 4
  %46 = sext i32 %45 to i64
  %47 = getelementptr inbounds [999 x %struct.book], [999 x %struct.book]* @book, i64 0, i64 %46
  %48 = getelementptr inbounds %struct.book, %struct.book* %47, i32 0, i32 1
  %49 = load i32, i32* %3, align 4
  %50 = sext i32 %49 to i64
  %51 = getelementptr inbounds [25 x i8], [25 x i8]* %48, i64 0, i64 %50
  %52 = load i8, i8* %51, align 1
  %53 = sext i8 %52 to i32
  %54 = load i32, i32* %4, align 4
  %55 = add nsw i32 %54, 65
  %56 = icmp eq i32 %53, %55
  br i1 %56, label %57, label %77

57:                                               ; preds = %44
  %58 = load i32, i32* %4, align 4
  %59 = sext i32 %58 to i64
  %60 = getelementptr inbounds [25 x i32], [25 x i32]* %8, i64 0, i64 %59
  %61 = load i32, i32* %60, align 4
  %62 = add nsw i32 %61, 1
  %63 = load i32, i32* %4, align 4
  %64 = sext i32 %63 to i64
  %65 = getelementptr inbounds [25 x i32], [25 x i32]* %8, i64 0, i64 %64
  store i32 %62, i32* %65, align 4
  %66 = load i32, i32* %2, align 4
  %67 = sext i32 %66 to i64
  %68 = getelementptr inbounds [999 x %struct.book], [999 x %struct.book]* @book, i64 0, i64 %67
  %69 = getelementptr inbounds %struct.book, %struct.book* %68, i32 0, i32 0
  %70 = load i32, i32* %69, align 16
  %71 = load i32, i32* %4, align 4
  %72 = sext i32 %71 to i64
  %73 = getelementptr inbounds [25 x [999 x i32]], [25 x [999 x i32]]* %9, i64 0, i64 %72
  %74 = load i32, i32* %2, align 4
  %75 = sext i32 %74 to i64
  %76 = getelementptr inbounds [999 x i32], [999 x i32]* %73, i64 0, i64 %75
  store i32 %70, i32* %76, align 4
  br label %77

77:                                               ; preds = %57, %44
  br label %78

78:                                               ; preds = %77
  %79 = load i32, i32* %4, align 4
  %80 = add nsw i32 %79, 1
  store i32 %80, i32* %4, align 4
  br label %41

81:                                               ; preds = %41
  br label %82

82:                                               ; preds = %81
  %83 = load i32, i32* %3, align 4
  %84 = add nsw i32 %83, 1
  store i32 %84, i32* %3, align 4
  br label %36

85:                                               ; preds = %36
  br label %86

86:                                               ; preds = %85
  %87 = load i32, i32* %2, align 4
  %88 = add nsw i32 %87, 1
  store i32 %88, i32* %2, align 4
  br label %14

89:                                               ; preds = %14
  store i32 0, i32* %2, align 4
  br label %90

90:                                               ; preds = %107, %89
  %91 = load i32, i32* %2, align 4
  %92 = icmp slt i32 %91, 25
  br i1 %92, label %93, label %110

93:                                               ; preds = %90
  %94 = load i32, i32* %2, align 4
  %95 = sext i32 %94 to i64
  %96 = getelementptr inbounds [25 x i32], [25 x i32]* %8, i64 0, i64 %95
  %97 = load i32, i32* %96, align 4
  %98 = load i32, i32* %7, align 4
  %99 = icmp sgt i32 %97, %98
  br i1 %99, label %100, label %106

100:                                              ; preds = %93
  %101 = load i32, i32* %2, align 4
  %102 = sext i32 %101 to i64
  %103 = getelementptr inbounds [25 x i32], [25 x i32]* %8, i64 0, i64 %102
  %104 = load i32, i32* %103, align 4
  store i32 %104, i32* %7, align 4
  %105 = load i32, i32* %2, align 4
  store i32 %105, i32* %6, align 4
  br label %106

106:                                              ; preds = %100, %93
  br label %107

107:                                              ; preds = %106
  %108 = load i32, i32* %2, align 4
  %109 = add nsw i32 %108, 1
  store i32 %109, i32* %2, align 4
  br label %90

110:                                              ; preds = %90
  %111 = load i32, i32* %6, align 4
  %112 = add nsw i32 %111, 65
  %113 = load i32, i32* %7, align 4
  %114 = call i32 (i8*, ...) @printf(i8* getelementptr inbounds ([7 x i8], [7 x i8]* @.str.2, i64 0, i64 0), i32 %112, i32 %113)
  store i32 0, i32* %2, align 4
  br label %115

115:                                              ; preds = %138, %110
  %116 = load i32, i32* %2, align 4
  %117 = load i32, i32* %1, align 4
  %118 = icmp slt i32 %116, %117
  br i1 %118, label %119, label %141

119:                                              ; preds = %115
  %120 = load i32, i32* %6, align 4
  %121 = sext i32 %120 to i64
  %122 = getelementptr inbounds [25 x [999 x i32]], [25 x [999 x i32]]* %9, i64 0, i64 %121
  %123 = load i32, i32* %2, align 4
  %124 = sext i32 %123 to i64
  %125 = getelementptr inbounds [999 x i32], [999 x i32]* %122, i64 0, i64 %124
  %126 = load i32, i32* %125, align 4
  %127 = icmp sgt i32 %126, 0
  br i1 %127, label %128, label %137

128:                                              ; preds = %119
  %129 = load i32, i32* %6, align 4
  %130 = sext i32 %129 to i64
  %131 = getelementptr inbounds [25 x [999 x i32]], [25 x [999 x i32]]* %9, i64 0, i64 %130
  %132 = load i32, i32* %2, align 4
  %133 = sext i32 %132 to i64
  %134 = getelementptr inbounds [999 x i32], [999 x i32]* %131, i64 0, i64 %133
  %135 = load i32, i32* %134, align 4
  %136 = call i32 (i8*, ...) @printf(i8* getelementptr inbounds ([4 x i8], [4 x i8]* @.str.3, i64 0, i64 0), i32 %135)
  br label %137

137:                                              ; preds = %128, %119
  br label %138

138:                                              ; preds = %137
  %139 = load i32, i32* %2, align 4
  %140 = add nsw i32 %139, 1
  store i32 %140, i32* %2, align 4
  br label %115

141:                                              ; preds = %115
  ret void
}

; Function Attrs: argmemonly nounwind willreturn
declare void @llvm.memset.p0i8.i64(i8* nocapture writeonly, i8, i64, i1 immarg) #1

declare dso_local i32 @__isoc99_scanf(i8*, ...) #2

; Function Attrs: nounwind readonly
declare dso_local i64 @strlen(i8*) #3

declare dso_local i32 @printf(i8*, ...) #2


!llvm.module.flags = !{!0}
!llvm.ident = !{!1}

!0 = !{i32 1, !"wchar_size", i32 4}
!1 = !{!"clang version 10.0.0-4ubuntu1 "}
